target datalayout = "e-m:e-p270:32:32-p271:32:32-p272:64:64-i64:64-i128:128-f80:128-n8:16:32:64-S128"
target triple = "x86_64-pc-linux-gnu"

%struct.ossl_passphrase_data_st = type { i32, %union.anon, i8, ptr, i64 }
%union.anon = type { %struct.anon }
%struct.anon = type { ptr, i64 }
%struct.ossl_store_ctx_st = type { ptr, ptr, ptr, ptr, ptr, i32, ptr, i32, i32, ptr, %struct.ossl_passphrase_data_st }
%struct.ossl_store_loader_st = type { ptr, ptr, ptr, ptr, ptr, ptr, ptr, ptr, ptr, ptr, ptr, ptr, ptr, i32, ptr, ptr, %struct.CRYPTO_REF_COUNT, ptr, ptr, ptr, ptr, ptr, ptr, ptr, ptr, ptr, ptr }
%struct.CRYPTO_REF_COUNT = type { i32 }

@.str.2 = private unnamed_addr constant [36 x i8] c"../openssl/crypto/store/store_lib.c\00", align 1

; Function Attrs: inlinehint nounwind uwtable
define internal void @sk_OSSL_STORE_INFO_pop_free(ptr noundef %0, ptr noundef %1) #7 {
  %3 = alloca ptr, align 8
  %4 = alloca ptr, align 8
  store ptr %0, ptr %3, align 8, !tbaa !87
  store ptr %1, ptr %4, align 8, !tbaa !12
  %5 = load ptr, ptr %3, align 8, !tbaa !87
  %6 = load ptr, ptr %4, align 8, !tbaa !12
  call void @OPENSSL_sk_pop_free(ptr noundef %5, ptr noundef %6)
  ret void
}

; Function Attrs: nounwind uwtable
define internal i32 @ossl_store_close_it(ptr noundef %0) #0 {
  %2 = alloca i32, align 4
  %3 = alloca ptr, align 8
  %4 = alloca i32, align 4
  %5 = alloca i32, align 4
  store ptr %0, ptr %3, align 8, !tbaa !19
  call void @llvm.lifetime.start.p0(i64 4, ptr %4) #8
  store i32 0, ptr %4, align 4, !tbaa !21
  %6 = load ptr, ptr %3, align 8, !tbaa !19
  %7 = icmp eq ptr %6, null
  br i1 %7, label %8, label %9

8:                                                ; preds = %1
  store i32 1, ptr %2, align 4
  store i32 1, ptr %5, align 4
  br label %52

9:                                                ; preds = %1
  %10 = load ptr, ptr %3, align 8, !tbaa !19
  %11 = getelementptr inbounds nuw %struct.ossl_store_ctx_st, ptr %10, i32 0, i32 1
  %12 = load ptr, ptr %11, align 8, !tbaa !42
  %13 = icmp ne ptr %12, null
  br i1 %13, label %14, label %24

14:                                               ; preds = %9
  %15 = load ptr, ptr %3, align 8, !tbaa !19
  %16 = getelementptr inbounds nuw %struct.ossl_store_ctx_st, ptr %15, i32 0, i32 0
  %17 = load ptr, ptr %16, align 8, !tbaa !43
  %18 = getelementptr inbounds nuw %struct.ossl_store_loader_st, ptr %17, i32 0, i32 23
  %19 = load ptr, ptr %18, align 8, !tbaa !35
  %20 = load ptr, ptr %3, align 8, !tbaa !19
  %21 = getelementptr inbounds nuw %struct.ossl_store_ctx_st, ptr %20, i32 0, i32 2
  %22 = load ptr, ptr %21, align 8, !tbaa !44
  %23 = call i32 %19(ptr noundef %22)
  store i32 %23, ptr %4, align 4, !tbaa !21
  br label %24

24:                                               ; preds = %14, %9
  %25 = load ptr, ptr %3, align 8, !tbaa !19
  %26 = getelementptr inbounds nuw %struct.ossl_store_ctx_st, ptr %25, i32 0, i32 1
  %27 = load ptr, ptr %26, align 8, !tbaa !42
  %28 = icmp eq ptr %27, null
  br i1 %28, label %29, label %39

29:                                               ; preds = %24
  %30 = load ptr, ptr %3, align 8, !tbaa !19
  %31 = getelementptr inbounds nuw %struct.ossl_store_ctx_st, ptr %30, i32 0, i32 0
  %32 = load ptr, ptr %31, align 8, !tbaa !43
  %33 = getelementptr inbounds nuw %struct.ossl_store_loader_st, ptr %32, i32 0, i32 10
  %34 = load ptr, ptr %33, align 8, !tbaa !50
  %35 = load ptr, ptr %3, align 8, !tbaa !19
  %36 = getelementptr inbounds nuw %struct.ossl_store_ctx_st, ptr %35, i32 0, i32 2
  %37 = load ptr, ptr %36, align 8, !tbaa !44
  %38 = call i32 %34(ptr noundef %37)
  store i32 %38, ptr %4, align 4, !tbaa !21
  br label %39

39:                                               ; preds = %29, %24
  %40 = load ptr, ptr %3, align 8, !tbaa !19
  %41 = getelementptr inbounds nuw %struct.ossl_store_ctx_st, ptr %40, i32 0, i32 9
  %42 = load ptr, ptr %41, align 8, !tbaa !51
  call void @sk_OSSL_STORE_INFO_pop_free(ptr noundef %42, ptr noundef @OSSL_STORE_INFO_free)
  %43 = load ptr, ptr %3, align 8, !tbaa !19
  %44 = getelementptr inbounds nuw %struct.ossl_store_ctx_st, ptr %43, i32 0, i32 1
  %45 = load ptr, ptr %44, align 8, !tbaa !42
  call void @OSSL_STORE_LOADER_free(ptr noundef %45)
  %46 = load ptr, ptr %3, align 8, !tbaa !19
  %47 = getelementptr inbounds nuw %struct.ossl_store_ctx_st, ptr %46, i32 0, i32 6
  %48 = load ptr, ptr %47, align 8, !tbaa !38
  call void @CRYPTO_free(ptr noundef %48, ptr noundef @.str.2, i32 noundef 587)
  %49 = load ptr, ptr %3, align 8, !tbaa !19
  %50 = getelementptr inbounds nuw %struct.ossl_store_ctx_st, ptr %49, i32 0, i32 10
  call void @ossl_pw_clear_passphrase_data(ptr noundef %50)
  %51 = load i32, ptr %4, align 4, !tbaa !21
  store i32 %51, ptr %2, align 4
  store i32 1, ptr %5, align 4
  br label %52

52:                                               ; preds = %39, %8
  call void @llvm.lifetime.end.p0(i64 4, ptr %4) #8
  %53 = load i32, ptr %2, align 4
  ret i32 %53
}

; Function Attrs: nounwind uwtable
define i32 @OSSL_STORE_close(ptr noundef %0) #0 {
  %2 = alloca ptr, align 8
  %3 = alloca i32, align 4
  store ptr %0, ptr %2, align 8, !tbaa !19
  call void @llvm.lifetime.start.p0(i64 4, ptr %3) #8
  %4 = load ptr, ptr %2, align 8, !tbaa !19
  %5 = call i32 @ossl_store_close_it(ptr noundef %4)
  store i32 %5, ptr %3, align 4, !tbaa !21
  %6 = load ptr, ptr %2, align 8, !tbaa !19
  call void @CRYPTO_free(ptr noundef %6, ptr noundef @.str.2, i32 noundef 596)
  %7 = load i32, ptr %3, align 4, !tbaa !21
  call void @llvm.lifetime.end.p0(i64 4, ptr %3) #8
  ret i32 %7
}