; Function Attrs: nounwind uwtable
define i32 @OSSL_STORE_close(ptr noundef %0) local_unnamed_addr #0 {
  %2 = icmp eq ptr %0, null
  br i1 %2, label %ossl_store_close_it.exit, label %3

3:                                                ; preds = %1
  %4 = getelementptr inbounds nuw i8, ptr %0, i64 8
  %5 = load ptr, ptr %4, align 8, !tbaa !33
  %.not.i = icmp eq ptr %5, null
  br i1 %.not.i, label %.thread.i, label %6

6:                                                ; preds = %3
  %7 = load ptr, ptr %0, align 8, !tbaa !34
  %8 = getelementptr inbounds nuw i8, ptr %7, i64 184
  %9 = load ptr, ptr %8, align 8, !tbaa !24
  %10 = getelementptr inbounds nuw i8, ptr %0, i64 16
  %11 = load ptr, ptr %10, align 8, !tbaa !35
  %12 = tail call i32 %9(ptr noundef %11) #9
  %.pr.i = load ptr, ptr %4, align 8, !tbaa !33
  %13 = icmp eq ptr %.pr.i, null
  br i1 %13, label %.thread.i, label %20

.thread.i:                                        ; preds = %6, %3
  %14 = load ptr, ptr %0, align 8, !tbaa !34
  %15 = getelementptr inbounds nuw i8, ptr %14, i64 80
  %16 = load ptr, ptr %15, align 8, !tbaa !39
  %17 = getelementptr inbounds nuw i8, ptr %0, i64 16
  %18 = load ptr, ptr %17, align 8, !tbaa !35
  %19 = tail call i32 %16(ptr noundef %18) #9
  br label %20

20:                                               ; preds = %.thread.i, %6
  %.1.i = phi i32 [ %19, %.thread.i ], [ %12, %6 ]
  %21 = getelementptr inbounds nuw i8, ptr %0, i64 64
  %22 = load ptr, ptr %21, align 8, !tbaa !40
  tail call void @OPENSSL_sk_pop_free(ptr noundef %22, ptr noundef nonnull @OSSL_STORE_INFO_free) #9
  %23 = load ptr, ptr %4, align 8, !tbaa !33
  tail call void @OSSL_STORE_LOADER_free(ptr noundef %23) #9
  %24 = getelementptr inbounds nuw i8, ptr %0, i64 48
  %25 = load ptr, ptr %24, align 8, !tbaa !27
  tail call void @CRYPTO_free(ptr noundef %25, ptr noundef nonnull @.str.2, i32 noundef 587) #9
  %26 = getelementptr inbounds nuw i8, ptr %0, i64 72
  tail call void @ossl_pw_clear_passphrase_data(ptr noundef nonnull %26) #9
  br label %ossl_store_close_it.exit

ossl_store_close_it.exit:                         ; preds = %1, %20
  %.012.i = phi i32 [ %.1.i, %20 ], [ 1, %1 ]
  tail call void @CRYPTO_free(ptr noundef %0, ptr noundef nonnull @.str.2, i32 noundef 596) #9
  ret i32 %.012.i
}